Certificate:
    Data:
        Version: 3 (0x2)
        Serial Number:
            fb:a9:07:0b:f5:01:60:02:ae:7d:79:8e:ae:2b:1f:a4
        Signature Algorithm: sha256WithRSAEncryption
        Issuer: CN=server
        Validity
            Not Before: Aug 14 16:15:16 2024 GMT
            Not After : Nov 17 16:15:16 2026 GMT
        Subject: CN=client
        Subject Public Key Info:
            Public Key Algorithm: rsaEncryption
                Public-Key: (2048 bit)
                Modulus:
                    00:b9:d7:9f:66:ef:7d:42:97:2f:4e:c2:61:46:59:
                    df:0c:60:bd:97:a8:e9:81:d5:45:2f:83:c9:90:40:
                    93:aa:20:61:e9:f2:8b:56:b9:11:b0:a1:7d:6c:7f:
                    d0:28:78:ae:e2:29:00:76:19:96:d3:52:65:f1:c1:
                    49:3b:91:11:6f:1f:26:8a:87:42:dc:f4:d6:b7:5b:
                    a3:6a:df:e8:03:c6:af:7e:f8:42:9e:17:6a:97:21:
                    65:5a:6a:b9:8b:73:04:e8:f8:5d:e1:ca:7a:93:c7:
                    0d:12:eb:3a:85:22:ae:b6:21:45:06:4d:4c:f9:a1:
                    8a:c8:f1:0a:51:d6:f6:25:af:72:35:9b:6a:ed:49:
                    80:50:95:1b:1c:36:8e:fa:30:1c:19:de:1a:75:be:
                    57:8c:6f:40:72:ca:b1:30:7e:bf:d3:23:14:4c:8b:
                    d6:4d:d5:3c:52:5c:e7:9c:4f:5a:5e:34:fd:69:bf:
                    1c:5a:f2:ee:91:54:3a:81:e2:b9:2f:ed:72:55:5b:
                    dd:41:22:fc:80:03:f3:66:1c:bf:df:80:c2:39:c5:
                    b0:07:e2:e6:1a:55:ad:6d:f2:20:df:a3:07:be:9b:
                    60:a7:b4:fa:89:c2:46:3c:df:0f:5c:3a:7d:6e:9d:
                    6e:ad:88:54:94:0b:e4:d5:0f:08:fc:68:fe:fc:91:
                    0e:b5
                Exponent: 65537 (0x10001)
        X509v3 extensions:
            X509v3 Basic Constraints: 
                CA:FALSE
            X509v3 Subject Key Identifier: 
                08:3A:B9:E7:13:ED:D5:50:50:54:A0:07:57:1D:B4:13:6B:2E:1F:02
            X509v3 Authority Key Identifier: 
                keyid:5E:24:51:B1:BE:12:DD:4B:FE:DB:9D:2C:E7:64:78:84:88:66:CB:4D
                DirName:/CN=server
                serial:79:AC:DA:7D:E6:5A:28:84:A7:1A:93:4D:9B:6F:D6:1C:42:21:4E:63
            X509v3 Extended Key Usage: 
                TLS Web Client Authentication
            X509v3 Key Usage: 
                Digital Signature
    Signature Algorithm: sha256WithRSAEncryption
    Signature Value:
        1d:cc:89:8c:15:ce:9a:8a:17:32:b9:0f:4c:53:3d:b6:10:e5:
        8a:33:5b:00:a3:00:60:48:d7:ef:34:5b:68:44:bb:16:6b:ac:
        a0:2f:af:31:1d:c0:4a:8c:8f:ff:ea:e1:60:3d:7b:1c:c1:c9:
        38:bb:7a:05:8b:11:cd:8e:ae:f2:eb:5c:ce:e2:80:5c:25:00:
        5c:ee:67:54:16:43:b8:38:a3:a5:6e:ea:26:e8:cb:a4:29:b0:
        13:c7:f7:0c:39:e1:6c:46:7c:b0:33:ee:5a:27:14:fc:a2:0f:
        f4:d9:6e:b8:2e:7a:03:e4:c6:c6:62:01:c8:b5:bc:be:fb:e5:
        b2:c9:c6:66:a5:04:cf:70:15:ae:9e:14:34:d3:e8:26:f3:1d:
        b2:7d:64:ab:60:69:ef:22:5c:75:c3:71:0a:87:5c:ef:f9:d2:
        d0:0f:65:ec:cc:47:45:a4:ab:1e:a7:12:09:c0:9e:ea:02:9b:
        7f:ab:73:d9:9f:f6:48:38:fa:99:a6:71:92:91:7b:70:ad:08:
        52:8c:01:8b:3b:77:5d:9c:f5:86:a6:1d:ba:58:35:ab:40:30:
        05:c3:e3:bd:3d:9b:d4:35:c7:ed:2e:2a:15:54:4e:08:cc:9f:
        71:34:a8:1a:b2:a9:0d:1b:9e:e7:64:a6:37:28:26:1c:49:a8:
        45:98:88:f6
-----BEGIN CERTIFICATE-----
MIIDSzCCAjOgAwIBAgIRAPupBwv1AWACrn15jq4rH6QwDQYJKoZIhvcNAQELBQAw
ETEPMA0GA1UEAwwGc2VydmVyMB4XDTI0MDgxNDE2MTUxNloXDTI2MTExNzE2MTUx
NlowETEPMA0GA1UEAwwGY2xpZW50MIIBIjANBgkqhkiG9w0BAQEFAAOCAQ8AMIIB
CgKCAQEAudefZu99QpcvTsJhRlnfDGC9l6jpgdVFL4PJkECTqiBh6fKLVrkRsKF9
bH/QKHiu4ikAdhmW01Jl8cFJO5ERbx8miodC3PTWt1ujat/oA8avfvhCnhdqlyFl
Wmq5i3ME6Phd4cp6k8cNEus6hSKutiFFBk1M+aGKyPEKUdb2Ja9yNZtq7UmAUJUb
HDaO+jAcGd4adb5XjG9AcsqxMH6/0yMUTIvWTdU8UlznnE9aXjT9ab8cWvLukVQ6
geK5L+1yVVvdQSL8gAPzZhy/34DCOcWwB+LmGlWtbfIg36MHvptgp7T6icJGPN8P
XDp9bp1urYhUlAvk1Q8I/Gj+/JEOtQIDAQABo4GdMIGaMAkGA1UdEwQCMAAwHQYD
VR0OBBYEFAg6uecT7dVQUFSgB1cdtBNrLh8CMEwGA1UdIwRFMEOAFF4kUbG+Et1L
/tudLOdkeISIZstNoRWkEzARMQ8wDQYDVQQDDAZzZXJ2ZXKCFHms2n3mWiiEpxqT
TZtv1hxCIU5jMBMGA1UdJQQMMAoGCCsGAQUFBwMCMAsGA1UdDwQEAwIHgDANBgkq
hkiG9w0BAQsFAAOCAQEAHcyJjBXOmooXMrkPTFM9thDlijNbAKMAYEjX7zRbaES7
FmusoC+vMR3ASoyP/+rhYD17HMHJOLt6BYsRzY6u8utczuKAXCUAXO5nVBZDuDij
pW7qJujLpCmwE8f3DDnhbEZ8sDPuWicU/KIP9NluuC56A+TGxmIByLW8vvvlssnG
ZqUEz3AVrp4UNNPoJvMdsn1kq2Bp7yJcdcNxCodc7/nS0A9l7MxHRaSrHqcSCcCe
6gKbf6tz2Z/2SDj6maZxkpF7cK0IUowBizt3XZz1hqYdulg1q0AwBcPjvT2b1DXH
7S4qFVROCMyfcTSoGrKpDRue52SmNygmHEmoRZiI9g==
-----END CERTIFICATE-----
